target datalayout = "e-m:e-p270:32:32-p271:32:32-p272:64:64-i64:64-i128:128-f80:128-n8:16:32:64-S128"
target triple = "x86_64-pc-linux-gnu"

@LogEvents = external global i8, align 1
@CompilerDirectivesPrint = external global i8, align 1
@tty = external global ptr, align 8

; Function Attrs: mustprogress nounwind uwtable
define hidden noundef zeroext i1 @_Z18compileBroker_initv() #1 {
  %1 = alloca i1, align 1
  %2 = load i8, ptr @LogEvents, align 1
  %3 = trunc i8 %2 to i1
  br i1 %3, label %4, label %5

4:                                                ; preds = %0
  call void @_ZN14CompilationLog4initEv()
  br label %5

5:                                                ; preds = %4, %0
  call void @_ZN15DirectivesStack4initEv()
  %6 = call noundef zeroext i1 @_ZN16DirectivesParser8has_fileEv()
  br i1 %6, label %7, label %9

7:                                                ; preds = %5
  %8 = call noundef zeroext i1 @_ZN16DirectivesParser15parse_from_flagEv()
  store i1 %8, ptr %1, align 1
  br label %16

9:                                                ; preds = %5
  %10 = load i8, ptr @CompilerDirectivesPrint, align 1
  %11 = trunc i8 %10 to i1
  br i1 %11, label %12, label %14

12:                                               ; preds = %9
  %13 = load ptr, ptr @tty, align 8
  call void @_ZN15DirectivesStack5printEP12outputStream(ptr noundef %13)
  br label %14

14:                                               ; preds = %12, %9
  br label %15

15:                                               ; preds = %14
  store i1 true, ptr %1, align 1
  br label %16

16:                                               ; preds = %15, %7
  %17 = load i1, ptr %1, align 1
  ret i1 %17
}