; Function Attrs: mustprogress nounwind uwtable
define hidden noundef zeroext i1 @_Z18compileBroker_initv() local_unnamed_addr #0 {
  %1 = load i8, ptr @LogEvents, align 1
  %2 = trunc i8 %1 to i1
  br i1 %2, label %3, label %4

3:                                                ; preds = %0
  tail call void @_ZN14CompilationLog4initEv() #20
  br label %4

4:                                                ; preds = %3, %0
  tail call void @_ZN15DirectivesStack4initEv() #20
  %5 = tail call noundef zeroext i1 @_ZN16DirectivesParser8has_fileEv() #20
  br i1 %5, label %6, label %8

6:                                                ; preds = %4
  %7 = tail call noundef zeroext i1 @_ZN16DirectivesParser15parse_from_flagEv() #20
  br label %13

8:                                                ; preds = %4
  %9 = load i8, ptr @CompilerDirectivesPrint, align 1
  %10 = trunc i8 %9 to i1
  br i1 %10, label %11, label %13

11:                                               ; preds = %8
  %12 = load ptr, ptr @tty, align 8
  tail call void @_ZN15DirectivesStack5printEP12outputStream(ptr noundef %12) #20
  br label %13

13:                                               ; preds = %11, %8, %6
  %.0 = phi i1 [ %7, %6 ], [ true, %8 ], [ true, %11 ]
  ret i1 %.0
}